; ModuleID = '17/794.c'
source_filename = "17/794.c"
target datalayout = "e-m:e-p270:32:32-p271:32:32-p272:64:64-i64:64-f80:128-n8:16:32:64-S128"
target triple = "x86_64-pc-linux-gnu"

@.str = private unnamed_addr constant [3 x i8] c"%d\00", align 1
@.str.1 = private unnamed_addr constant [3 x i8] c"%s\00", align 1
@.str.2 = private unnamed_addr constant [4 x i8] c"%s\0A\00", align 1
@.str.3 = private unnamed_addr constant [2 x i8] c"$\00", align 1
@.str.4 = private unnamed_addr constant [2 x i8] c"?\00", align 1
@.str.5 = private unnamed_addr constant [2 x i8] c" \00", align 1
@.str.6 = private unnamed_addr constant [2 x i8] c"\0A\00", align 1

; Function Attrs: noinline nounwind uwtable
define dso_local i32 @main() #0 {
  %1 = alloca i32, align 4
  %2 = alloca [30 x [120 x i8]], align 16
  %3 = alloca i32, align 4
  %4 = alloca i32, align 4
  %5 = alloca i32, align 4
  %6 = alloca [30 x i32], align 16
  %7 = alloca i32, align 4
  %8 = alloca [30 x [120 x i32]], align 16
  %9 = alloca [30 x [120 x i32]], align 16
  store i32 0, i32* %1, align 4
  %10 = call i32 (i8*, ...) @__isoc99_scanf(i8* getelementptr inbounds ([3 x i8], [3 x i8]* @.str, i64 0, i64 0), i32* %4)
  store i32 1, i32* %5, align 4
  br label %11

11:                                               ; preds = %36, %0
  %12 = load i32, i32* %5, align 4
  %13 = load i32, i32* %4, align 4
  %14 = icmp sle i32 %12, %13
  br i1 %14, label %15, label %39

15:                                               ; preds = %11
  store i32 0, i32* %3, align 4
  br label %16

16:                                               ; preds = %32, %15
  %17 = load i32, i32* %3, align 4
  %18 = icmp sle i32 %17, 119
  br i1 %18, label %19, label %35

19:                                               ; preds = %16
  %20 = load i32, i32* %5, align 4
  %21 = sext i32 %20 to i64
  %22 = getelementptr inbounds [30 x [120 x i32]], [30 x [120 x i32]]* %8, i64 0, i64 %21
  %23 = load i32, i32* %3, align 4
  %24 = sext i32 %23 to i64
  %25 = getelementptr inbounds [120 x i32], [120 x i32]* %22, i64 0, i64 %24
  store i32 0, i32* %25, align 4
  %26 = load i32, i32* %5, align 4
  %27 = sext i32 %26 to i64
  %28 = getelementptr inbounds [30 x [120 x i32]], [30 x [120 x i32]]* %9, i64 0, i64 %27
  %29 = load i32, i32* %3, align 4
  %30 = sext i32 %29 to i64
  %31 = getelementptr inbounds [120 x i32], [120 x i32]* %28, i64 0, i64 %30
  store i32 0, i32* %31, align 4
  br label %32

32:                                               ; preds = %19
  %33 = load i32, i32* %3, align 4
  %34 = add nsw i32 %33, 1
  store i32 %34, i32* %3, align 4
  br label %16

35:                                               ; preds = %16
  br label %36

36:                                               ; preds = %35
  %37 = load i32, i32* %5, align 4
  %38 = add nsw i32 %37, 1
  store i32 %38, i32* %5, align 4
  br label %11

39:                                               ; preds = %11
  store i32 1, i32* %5, align 4
  br label %40

40:                                               ; preds = %211, %39
  %41 = load i32, i32* %5, align 4
  %42 = load i32, i32* %4, align 4
  %43 = icmp sle i32 %41, %42
  br i1 %43, label %44, label %214

44:                                               ; preds = %40
  store i32 0, i32* %7, align 4
  %45 = load i32, i32* %5, align 4
  %46 = sext i32 %45 to i64
  %47 = getelementptr inbounds [30 x [120 x i8]], [30 x [120 x i8]]* %2, i64 0, i64 %46
  %48 = getelementptr inbounds [120 x i8], [120 x i8]* %47, i64 0, i64 0
  %49 = call i32 (i8*, ...) @__isoc99_scanf(i8* getelementptr inbounds ([3 x i8], [3 x i8]* @.str.1, i64 0, i64 0), i8* %48)
  %50 = load i32, i32* %5, align 4
  %51 = sext i32 %50 to i64
  %52 = getelementptr inbounds [30 x [120 x i8]], [30 x [120 x i8]]* %2, i64 0, i64 %51
  %53 = getelementptr inbounds [120 x i8], [120 x i8]* %52, i64 0, i64 0
  %54 = call i64 @strlen(i8* %53) #3
  %55 = trunc i64 %54 to i32
  %56 = load i32, i32* %5, align 4
  %57 = sext i32 %56 to i64
  %58 = getelementptr inbounds [30 x i32], [30 x i32]* %6, i64 0, i64 %57
  store i32 %55, i32* %58, align 4
  %59 = load i32, i32* %5, align 4
  %60 = sext i32 %59 to i64
  %61 = getelementptr inbounds [30 x i32], [30 x i32]* %6, i64 0, i64 %60
  %62 = load i32, i32* %61, align 4
  %63 = sub nsw i32 %62, 1
  store i32 %63, i32* %3, align 4
  br label %64

64:                                               ; preds = %109, %44
  %65 = load i32, i32* %3, align 4
  %66 = icmp sge i32 %65, 0
  br i1 %66, label %67, label %112

67:                                               ; preds = %64
  %68 = load i32, i32* %5, align 4
  %69 = sext i32 %68 to i64
  %70 = getelementptr inbounds [30 x [120 x i8]], [30 x [120 x i8]]* %2, i64 0, i64 %69
  %71 = load i32, i32* %3, align 4
  %72 = sext i32 %71 to i64
  %73 = getelementptr inbounds [120 x i8], [120 x i8]* %70, i64 0, i64 %72
  %74 = load i8, i8* %73, align 1
  %75 = sext i8 %74 to i32
  %76 = icmp eq i32 %75, 40
  br i1 %76, label %77, label %94

77:                                               ; preds = %67
  %78 = load i32, i32* %7, align 4
  %79 = icmp eq i32 %78, 0
  br i1 %79, label %80, label %87

80:                                               ; preds = %77
  %81 = load i32, i32* %5, align 4
  %82 = sext i32 %81 to i64
  %83 = getelementptr inbounds [30 x [120 x i32]], [30 x [120 x i32]]* %8, i64 0, i64 %82
  %84 = load i32, i32* %3, align 4
  %85 = sext i32 %84 to i64
  %86 = getelementptr inbounds [120 x i32], [120 x i32]* %83, i64 0, i64 %85
  store i32 1, i32* %86, align 4
  br label %87

87:                                               ; preds = %80, %77
  %88 = load i32, i32* %7, align 4
  %89 = icmp sgt i32 %88, 0
  br i1 %89, label %90, label %93

90:                                               ; preds = %87
  %91 = load i32, i32* %7, align 4
  %92 = sub nsw i32 %91, 1
  store i32 %92, i32* %7, align 4
  br label %93

93:                                               ; preds = %90, %87
  br label %108

94:                                               ; preds = %67
  %95 = load i32, i32* %5, align 4
  %96 = sext i32 %95 to i64
  %97 = getelementptr inbounds [30 x [120 x i8]], [30 x [120 x i8]]* %2, i64 0, i64 %96
  %98 = load i32, i32* %3, align 4
  %99 = sext i32 %98 to i64
  %100 = getelementptr inbounds [120 x i8], [120 x i8]* %97, i64 0, i64 %99
  %101 = load i8, i8* %100, align 1
  %102 = sext i8 %101 to i32
  %103 = icmp eq i32 %102, 41
  br i1 %103, label %104, label %107

104:                                              ; preds = %94
  %105 = load i32, i32* %7, align 4
  %106 = add nsw i32 %105, 1
  store i32 %106, i32* %7, align 4
  br label %107

107:                                              ; preds = %104, %94
  br label %108

108:                                              ; preds = %107, %93
  br label %109

109:                                              ; preds = %108
  %110 = load i32, i32* %3, align 4
  %111 = add nsw i32 %110, -1
  store i32 %111, i32* %3, align 4
  br label %64

112:                                              ; preds = %64
  store i32 0, i32* %7, align 4
  store i32 0, i32* %3, align 4
  br label %113

113:                                              ; preds = %163, %112
  %114 = load i32, i32* %3, align 4
  %115 = load i32, i32* %5, align 4
  %116 = sext i32 %115 to i64
  %117 = getelementptr inbounds [30 x i32], [30 x i32]* %6, i64 0, i64 %116
  %118 = load i32, i32* %117, align 4
  %119 = sub nsw i32 %118, 1
  %120 = icmp sle i32 %114, %119
  br i1 %120, label %121, label %166

121:                                              ; preds = %113
  %122 = load i32, i32* %5, align 4
  %123 = sext i32 %122 to i64
  %124 = getelementptr inbounds [30 x [120 x i8]], [30 x [120 x i8]]* %2, i64 0, i64 %123
  %125 = load i32, i32* %3, align 4
  %126 = sext i32 %125 to i64
  %127 = getelementptr inbounds [120 x i8], [120 x i8]* %124, i64 0, i64 %126
  %128 = load i8, i8* %127, align 1
  %129 = sext i8 %128 to i32
  %130 = icmp eq i32 %129, 41
  br i1 %130, label %131, label %148

131:                                              ; preds = %121
  %132 = load i32, i32* %7, align 4
  %133 = icmp eq i32 %132, 0
  br i1 %133, label %134, label %141

134:                                              ; preds = %131
  %135 = load i32, i32* %5, align 4
  %136 = sext i32 %135 to i64
  %137 = getelementptr inbounds [30 x [120 x i32]], [30 x [120 x i32]]* %9, i64 0, i64 %136
  %138 = load i32, i32* %3, align 4
  %139 = sext i32 %138 to i64
  %140 = getelementptr inbounds [120 x i32], [120 x i32]* %137, i64 0, i64 %139
  store i32 1, i32* %140, align 4
  br label %141

141:                                              ; preds = %134, %131
  %142 = load i32, i32* %7, align 4
  %143 = icmp sgt i32 %142, 0
  br i1 %143, label %144, label %147

144:                                              ; preds = %141
  %145 = load i32, i32* %7, align 4
  %146 = sub nsw i32 %145, 1
  store i32 %146, i32* %7, align 4
  br label %147

147:                                              ; preds = %144, %141
  br label %162

148:                                              ; preds = %121
  %149 = load i32, i32* %5, align 4
  %150 = sext i32 %149 to i64
  %151 = getelementptr inbounds [30 x [120 x i8]], [30 x [120 x i8]]* %2, i64 0, i64 %150
  %152 = load i32, i32* %3, align 4
  %153 = sext i32 %152 to i64
  %154 = getelementptr inbounds [120 x i8], [120 x i8]* %151, i64 0, i64 %153
  %155 = load i8, i8* %154, align 1
  %156 = sext i8 %155 to i32
  %157 = icmp eq i32 %156, 40
  br i1 %157, label %158, label %161

158:                                              ; preds = %148
  %159 = load i32, i32* %7, align 4
  %160 = add nsw i32 %159, 1
  store i32 %160, i32* %7, align 4
  br label %161

161:                                              ; preds = %158, %148
  br label %162

162:                                              ; preds = %161, %147
  br label %163

163:                                              ; preds = %162
  %164 = load i32, i32* %3, align 4
  %165 = add nsw i32 %164, 1
  store i32 %165, i32* %3, align 4
  br label %113

166:                                              ; preds = %113
  %167 = load i32, i32* %5, align 4
  %168 = sext i32 %167 to i64
  %169 = getelementptr inbounds [30 x [120 x i8]], [30 x [120 x i8]]* %2, i64 0, i64 %168
  %170 = getelementptr inbounds [120 x i8], [120 x i8]* %169, i64 0, i64 0
  %171 = call i32 (i8*, ...) @printf(i8* getelementptr inbounds ([4 x i8], [4 x i8]* @.str.2, i64 0, i64 0), i8* %170)
  store i32 0, i32* %3, align 4
  br label %172

172:                                              ; preds = %206, %166
  %173 = load i32, i32* %3, align 4
  %174 = load i32, i32* %5, align 4
  %175 = sext i32 %174 to i64
  %176 = getelementptr inbounds [30 x i32], [30 x i32]* %6, i64 0, i64 %175
  %177 = load i32, i32* %176, align 4
  %178 = sub nsw i32 %177, 1
  %179 = icmp sle i32 %173, %178
  br i1 %179, label %180, label %209

180:                                              ; preds = %172
  %181 = load i32, i32* %5, align 4
  %182 = sext i32 %181 to i64
  %183 = getelementptr inbounds [30 x [120 x i32]], [30 x [120 x i32]]* %8, i64 0, i64 %182
  %184 = load i32, i32* %3, align 4
  %185 = sext i32 %184 to i64
  %186 = getelementptr inbounds [120 x i32], [120 x i32]* %183, i64 0, i64 %185
  %187 = load i32, i32* %186, align 4
  %188 = icmp eq i32 %187, 1
  br i1 %188, label %189, label %191

189:                                              ; preds = %180
  %190 = call i32 (i8*, ...) @printf(i8* getelementptr inbounds ([2 x i8], [2 x i8]* @.str.3, i64 0, i64 0))
  br label %205

191:                                              ; preds = %180
  %192 = load i32, i32* %5, align 4
  %193 = sext i32 %192 to i64
  %194 = getelementptr inbounds [30 x [120 x i32]], [30 x [120 x i32]]* %9, i64 0, i64 %193
  %195 = load i32, i32* %3, align 4
  %196 = sext i32 %195 to i64
  %197 = getelementptr inbounds [120 x i32], [120 x i32]* %194, i64 0, i64 %196
  %198 = load i32, i32* %197, align 4
  %199 = icmp eq i32 %198, 1
  br i1 %199, label %200, label %202

200:                                              ; preds = %191
  %201 = call i32 (i8*, ...) @printf(i8* getelementptr inbounds ([2 x i8], [2 x i8]* @.str.4, i64 0, i64 0))
  br label %204

202:                                              ; preds = %191
  %203 = call i32 (i8*, ...) @printf(i8* getelementptr inbounds ([2 x i8], [2 x i8]* @.str.5, i64 0, i64 0))
  br label %204

204:                                              ; preds = %202, %200
  br label %205

205:                                              ; preds = %204, %189
  br label %206

206:                                              ; preds = %205
  %207 = load i32, i32* %3, align 4
  %208 = add nsw i32 %207, 1
  store i32 %208, i32* %3, align 4
  br label %172

209:                                              ; preds = %172
  %210 = call i32 (i8*, ...) @printf(i8* getelementptr inbounds ([2 x i8], [2 x i8]* @.str.6, i64 0, i64 0))
  br label %211

211:                                              ; preds = %209
  %212 = load i32, i32* %5, align 4
  %213 = add nsw i32 %212, 1
  store i32 %213, i32* %5, align 4
  br label %40

214:                                              ; preds = %40
  ret i32 0
}

declare dso_local i32 @__isoc99_scanf(i8*, ...) #1

; Function Attrs: nounwind readonly
declare dso_local i64 @strlen(i8*) #2

declare dso_local i32 @printf(i8*, ...) #1


!llvm.module.flags = !{!0}
!llvm.ident = !{!1}

!0 = !{i32 1, !"wchar_size", i32 4}
!1 = !{!"clang version 10.0.0-4ubuntu1 "}
